target datalayout = "e-m:e-p270:32:32-p271:32:32-p272:64:64-i64:64-i128:128-f80:128-n8:16:32:64-S128"
target triple = "x86_64-pc-linux-gnu"

%struct.H5FL_reg_head_t = type { i8, i32, i32, ptr, i64, ptr }
%struct.H5MF_free_section_t = type { %struct.H5FS_section_info_t }
%struct.H5FS_section_info_t = type { i64, i64, i32, i32 }
%struct.H5MF_sect_ud_t = type { ptr, i32, i8, i8, i32, ptr }
%struct.H5F_t = type { ptr, ptr, ptr, ptr, i32, ptr, i8, i8, ptr, i32 }
%struct.H5F_shared_t = type { ptr, ptr, ptr, i8, i32, i32, %struct.H5F_mtab_t, ptr, i8, i8, i64, i32, i32, i64, i64, ptr, ptr, %struct.H5AC_cache_config_t, %struct.H5AC_cache_image_config_t, i8, i8, ptr, i64, i32, i8, i64, i64, double, i64, i64, i64, i32, i32, i32, i8, i32, ptr, ptr, ptr, ptr, i8, i8, i8, i64, i64, ptr, ptr, i32, i64, i8, i32, i8, i64, i8, [13 x i32], [13 x i64], [13 x ptr], i8, i64, i64, [7 x i32], [7 x i32], %struct.H5F_blk_aggr_t, %struct.H5F_blk_aggr_t, i64, i64, %struct.H5F_meta_accum_t, i32, i32, [30 x ptr], %struct.H5F_object_flush_t, i8, ptr }
%struct.H5F_mtab_t = type { i32, i32, ptr }
%struct.H5AC_cache_config_t = type { i32, i8, i8, i8, [1025 x i8], i8, i8, i64, double, i64, i64, i64, i32, double, double, i8, i64, i32, double, double, i32, double, double, i8, i64, i32, i8, double, i64, i32 }
%struct.H5AC_cache_image_config_t = type { i32, i8, i8, i32 }
%struct.H5F_blk_aggr_t = type { i64, i64, i64, i64, i64 }
%struct.H5F_meta_accum_t = type { ptr, i64, i64, i64, i64, i64, i8 }
%struct.H5F_object_flush_t = type { ptr, ptr }

@H5_H5MF_free_section_t_reg_free_list = internal global %struct.H5FL_reg_head_t { i8 0, i32 0, i32 0, ptr @.str.2, i64 24, ptr null }, align 8
@.str = private unnamed_addr constant [105 x i8] c"generated/home/dtcxzyw/WorkSpace/Projects/compilers/llvm-opt-benchmark/bench/hdf5/hdf5/src/H5MFsection.c\00", align 1
@H5E_RESOURCE_g = external global i64, align 8
@H5E_CANTRELEASE_g = external global i64, align 8
@.str.4 = private unnamed_addr constant [24 x i8] c"can't free section node\00", align 1
@__func__.H5MF__sect_small_add = private unnamed_addr constant [21 x i8] c"H5MF__sect_small_add\00", align 1
@H5E_BADVALUE_g = external global i64, align 8
@.str.10 = private unnamed_addr constant [51 x i8] c"page size of zero would result in division by zero\00", align 1

; Function Attrs: nounwind uwtable
define i32 @H5MF__sect_free(ptr noundef %0) #0 {
  %2 = alloca ptr, align 8
  %3 = alloca ptr, align 8
  store ptr %0, ptr %2, align 8
  %4 = load ptr, ptr %2, align 8
  store ptr %4, ptr %3, align 8
  %5 = load ptr, ptr %3, align 8
  %6 = call ptr @H5FL_reg_free(ptr noundef @H5_H5MF_free_section_t_reg_free_list, ptr noundef %5)
  store ptr %6, ptr %3, align 8
  ret i32 0
}

; Function Attrs: nounwind uwtable
define internal i32 @H5MF__sect_small_add(ptr noundef %0, ptr noundef %1, ptr noundef %2) #0 {
  %4 = alloca ptr, align 8
  %5 = alloca ptr, align 8
  %6 = alloca ptr, align 8
  %7 = alloca ptr, align 8
  %8 = alloca ptr, align 8
  %9 = alloca i64, align 8
  %10 = alloca i64, align 8
  %11 = alloca i64, align 8
  %12 = alloca i32, align 4
  %13 = alloca i8, align 1
  store ptr %0, ptr %4, align 8
  store ptr %1, ptr %5, align 8
  store ptr %2, ptr %6, align 8
  %14 = load ptr, ptr %4, align 8
  store ptr %14, ptr %7, align 8
  %15 = load ptr, ptr %6, align 8
  store ptr %15, ptr %8, align 8
  store i32 0, ptr %12, align 4
  store i8 0, ptr %13, align 1
  %16 = load ptr, ptr %8, align 8
  %17 = getelementptr inbounds %struct.H5MF_sect_ud_t, ptr %16, i32 0, i32 1
  %18 = load i32, ptr %17, align 8
  %19 = icmp eq i32 %18, 3
  br i1 %19, label %25, label %20

20:                                               ; preds = %3
  %21 = load ptr, ptr %8, align 8
  %22 = getelementptr inbounds %struct.H5MF_sect_ud_t, ptr %21, i32 0, i32 1
  %23 = load i32, ptr %22, align 8
  %24 = icmp eq i32 %23, 4
  br i1 %24, label %25, label %29

25:                                               ; preds = %20, %3
  br label %26

26:                                               ; preds = %25
  %27 = load i32, ptr %12, align 4
  store i32 %27, ptr %12, align 4
  br label %146

28:                                               ; No predecessors!
  br label %29

29:                                               ; preds = %28, %20
  %30 = load ptr, ptr %7, align 8
  %31 = load ptr, ptr %30, align 8
  %32 = getelementptr inbounds %struct.H5MF_free_section_t, ptr %31, i32 0, i32 0
  %33 = getelementptr inbounds %struct.H5FS_section_info_t, ptr %32, i32 0, i32 0
  %34 = load i64, ptr %33, align 8
  %35 = load ptr, ptr %7, align 8
  %36 = load ptr, ptr %35, align 8
  %37 = getelementptr inbounds %struct.H5MF_free_section_t, ptr %36, i32 0, i32 0
  %38 = getelementptr inbounds %struct.H5FS_section_info_t, ptr %37, i32 0, i32 1
  %39 = load i64, ptr %38, align 8
  %40 = add i64 %34, %39
  store i64 %40, ptr %9, align 8
  %41 = load ptr, ptr %8, align 8
  %42 = getelementptr inbounds %struct.H5MF_sect_ud_t, ptr %41, i32 0, i32 0
  %43 = load ptr, ptr %42, align 8
  %44 = getelementptr inbounds %struct.H5F_t, ptr %43, i32 0, i32 2
  %45 = load ptr, ptr %44, align 8
  %46 = getelementptr inbounds %struct.H5F_shared_t, ptr %45, i32 0, i32 64
  %47 = load i64, ptr %46, align 8
  %48 = icmp eq i64 0, %47
  br i1 %48, label %49, label %64

49:                                               ; preds = %29
  br label %50

50:                                               ; preds = %49
  br label %51

51:                                               ; preds = %50
  br label %52

52:                                               ; preds = %51
  %53 = load i64, ptr @H5E_RESOURCE_g, align 8
  %54 = load i64, ptr @H5E_BADVALUE_g, align 8
  %55 = call i32 (ptr, ptr, i32, i64, i64, ptr, ...) @H5E_printf_stack(ptr noundef @.str, ptr noundef @__func__.H5MF__sect_small_add, i32 noundef 610, i64 noundef %53, i64 noundef %54, ptr noundef @.str.10)
  br label %56

56:                                               ; preds = %52
  store i8 1, ptr %13, align 1
  %57 = load i8, ptr %13, align 1
  %58 = trunc i8 %57 to i1
  %59 = zext i1 %58 to i8
  store i8 %59, ptr %13, align 1
  br label %60

60:                                               ; preds = %56
  br label %61

61:                                               ; preds = %60
  store i32 -1, ptr %12, align 4
  br label %146

62:                                               ; No predecessors!
  br label %63

63:                                               ; preds = %62
  br label %64

64:                                               ; preds = %63, %29
  %65 = load i64, ptr %9, align 8
  %66 = load ptr, ptr %8, align 8
  %67 = getelementptr inbounds %struct.H5MF_sect_ud_t, ptr %66, i32 0, i32 0
  %68 = load ptr, ptr %67, align 8
  %69 = getelementptr inbounds %struct.H5F_t, ptr %68, i32 0, i32 2
  %70 = load ptr, ptr %69, align 8
  %71 = getelementptr inbounds %struct.H5F_shared_t, ptr %70, i32 0, i32 64
  %72 = load i64, ptr %71, align 8
  %73 = urem i64 %65, %72
  store i64 %73, ptr %10, align 8
  %74 = load ptr, ptr %8, align 8
  %75 = getelementptr inbounds %struct.H5MF_sect_ud_t, ptr %74, i32 0, i32 0
  %76 = load ptr, ptr %75, align 8
  %77 = getelementptr inbounds %struct.H5F_t, ptr %76, i32 0, i32 2
  %78 = load ptr, ptr %77, align 8
  %79 = getelementptr inbounds %struct.H5F_shared_t, ptr %78, i32 0, i32 64
  %80 = load i64, ptr %79, align 8
  %81 = load i64, ptr %10, align 8
  %82 = sub i64 %80, %81
  store i64 %82, ptr %11, align 8
  %83 = load i64, ptr %10, align 8
  %84 = icmp ne i64 %83, 0
  br i1 %84, label %129, label %85

85:                                               ; preds = %64
  %86 = load ptr, ptr %7, align 8
  %87 = load ptr, ptr %86, align 8
  %88 = getelementptr inbounds %struct.H5MF_free_section_t, ptr %87, i32 0, i32 0
  %89 = getelementptr inbounds %struct.H5FS_section_info_t, ptr %88, i32 0, i32 1
  %90 = load i64, ptr %89, align 8
  %91 = load ptr, ptr %8, align 8
  %92 = getelementptr inbounds %struct.H5MF_sect_ud_t, ptr %91, i32 0, i32 0
  %93 = load ptr, ptr %92, align 8
  %94 = call i64 @H5F_get_pgend_meta_thres(ptr noundef %93)
  %95 = icmp ule i64 %90, %94
  br i1 %95, label %96, label %129

96:                                               ; preds = %85
  %97 = load ptr, ptr %5, align 8
  %98 = load i32, ptr %97, align 4
  %99 = and i32 %98, 2
  %100 = icmp ne i32 %99, 0
  br i1 %100, label %101, label %129

101:                                              ; preds = %96
  %102 = load ptr, ptr %7, align 8
  %103 = load ptr, ptr %102, align 8
  %104 = call i32 @H5MF__sect_free(ptr noundef %103)
  %105 = icmp slt i32 %104, 0
  br i1 %105, label %106, label %121

106:                                              ; preds = %101
  br label %107

107:                                              ; preds = %106
  br label %108

108:                                              ; preds = %107
  br label %109

109:                                              ; preds = %108
  %110 = load i64, ptr @H5E_RESOURCE_g, align 8
  %111 = load i64, ptr @H5E_CANTRELEASE_g, align 8
  %112 = call i32 (ptr, ptr, i32, i64, i64, ptr, ...) @H5E_printf_stack(ptr noundef @.str, ptr noundef @__func__.H5MF__sect_small_add, i32 noundef 618, i64 noundef %110, i64 noundef %111, ptr noundef @.str.4)
  br label %113

113:                                              ; preds = %109
  store i8 1, ptr %13, align 1
  %114 = load i8, ptr %13, align 1
  %115 = trunc i8 %114 to i1
  %116 = zext i1 %115 to i8
  store i8 %116, ptr %13, align 1
  br label %117

117:                                              ; preds = %113
  br label %118

118:                                              ; preds = %117
  store i32 -1, ptr %12, align 4
  br label %146

119:                                              ; No predecessors!
  br label %120

120:                                              ; preds = %119
  br label %121

121:                                              ; preds = %120, %101
  %122 = load ptr, ptr %7, align 8
  store ptr null, ptr %122, align 8
  %123 = load ptr, ptr %5, align 8
  %124 = load i32, ptr %123, align 4
  %125 = and i32 %124, -3
  store i32 %125, ptr %123, align 4
  %126 = load ptr, ptr %5, align 8
  %127 = load i32, ptr %126, align 4
  %128 = or i32 %127, 8
  store i32 %128, ptr %126, align 4
  br label %145

129:                                              ; preds = %96, %85, %64
  %130 = load i64, ptr %11, align 8
  %131 = load ptr, ptr %8, align 8
  %132 = getelementptr inbounds %struct.H5MF_sect_ud_t, ptr %131, i32 0, i32 0
  %133 = load ptr, ptr %132, align 8
  %134 = call i64 @H5F_get_pgend_meta_thres(ptr noundef %133)
  %135 = icmp ule i64 %130, %134
  br i1 %135, label %136, label %144

136:                                              ; preds = %129
  %137 = load i64, ptr %11, align 8
  %138 = load ptr, ptr %7, align 8
  %139 = load ptr, ptr %138, align 8
  %140 = getelementptr inbounds %struct.H5MF_free_section_t, ptr %139, i32 0, i32 0
  %141 = getelementptr inbounds %struct.H5FS_section_info_t, ptr %140, i32 0, i32 1
  %142 = load i64, ptr %141, align 8
  %143 = add i64 %142, %137
  store i64 %143, ptr %141, align 8
  br label %144

144:                                              ; preds = %136, %129
  br label %145

145:                                              ; preds = %144, %121
  br label %146

146:                                              ; preds = %145, %118, %61, %26
  %147 = load i32, ptr %12, align 4
  ret i32 %147
}