; Function Attrs: nounwind uwtable
define internal range(i32 -1, 1) i32 @H5MF__sect_small_add(ptr nocapture noundef %0, ptr nocapture noundef %1, ptr nocapture noundef readonly %2) #0 {
  %4 = getelementptr inbounds i8, ptr %2, i64 8
  %5 = load i32, ptr %4, align 8
  %.off = add i32 %5, -3
  %switch = icmp ult i32 %.off, 2
  br i1 %switch, label %44, label %6

6:                                                ; preds = %3
  %7 = load ptr, ptr %0, align 8
  %8 = getelementptr inbounds i8, ptr %7, i64 8
  %9 = load i64, ptr %8, align 8
  %10 = load ptr, ptr %2, align 8
  %11 = getelementptr inbounds i8, ptr %10, i64 16
  %12 = load ptr, ptr %11, align 8
  %13 = getelementptr inbounds i8, ptr %12, i64 1984
  %14 = load i64, ptr %13, align 8
  %15 = icmp eq i64 %14, 0
  br i1 %15, label %16, label %20

16:                                               ; preds = %6
  %17 = load i64, ptr @H5E_RESOURCE_g, align 8
  %18 = load i64, ptr @H5E_BADVALUE_g, align 8
  %19 = tail call i32 (ptr, ptr, i32, i64, i64, ptr, ...) @H5E_printf_stack(ptr noundef nonnull @.str, ptr noundef nonnull @__func__.H5MF__sect_small_add, i32 noundef 610, i64 noundef %17, i64 noundef %18, ptr noundef nonnull @.str.10) #5
  br label %44

20:                                               ; preds = %6
  %21 = load i64, ptr %7, align 8
  %22 = add i64 %21, %9
  %23 = urem i64 %22, %14
  %24 = sub i64 %14, %23
  %.not = icmp eq i64 %23, 0
  br i1 %.not, label %25, label %36

25:                                               ; preds = %20
  %26 = tail call i64 @H5F_get_pgend_meta_thres(ptr noundef nonnull %10) #5
  %.not29 = icmp ugt i64 %9, %26
  br i1 %.not29, label %36, label %27

27:                                               ; preds = %25
  %28 = load i32, ptr %1, align 4
  %29 = and i32 %28, 2
  %.not30 = icmp eq i32 %29, 0
  br i1 %.not30, label %36, label %30

30:                                               ; preds = %27
  %31 = load ptr, ptr %0, align 8
  %32 = tail call ptr @H5FL_reg_free(ptr noundef nonnull @H5_H5MF_free_section_t_reg_free_list, ptr noundef %31) #5
  store ptr null, ptr %0, align 8
  %33 = load i32, ptr %1, align 4
  %34 = and i32 %33, -11
  %35 = or disjoint i32 %34, 8
  store i32 %35, ptr %1, align 4
  br label %44

36:                                               ; preds = %27, %25, %20
  %37 = load ptr, ptr %2, align 8
  %38 = tail call i64 @H5F_get_pgend_meta_thres(ptr noundef %37) #5
  %.not31 = icmp ugt i64 %24, %38
  br i1 %.not31, label %44, label %39

39:                                               ; preds = %36
  %40 = load ptr, ptr %0, align 8
  %41 = getelementptr inbounds i8, ptr %40, i64 8
  %42 = load i64, ptr %41, align 8
  %43 = add i64 %42, %24
  store i64 %43, ptr %41, align 8
  br label %44

44:                                               ; preds = %3, %30, %39, %36, %16
  %.0 = phi i32 [ -1, %16 ], [ 0, %39 ], [ 0, %36 ], [ 0, %30 ], [ 0, %3 ]
  ret i32 %.0
}